target datalayout = "e-m:e-p270:32:32-p271:32:32-p272:64:64-i64:64-i128:128-f80:128-n8:16:32:64-S128"
target triple = "x86_64-unknown-linux-gnu"

%"class.std::__cxx11::basic_string" = type { %"struct.std::__cxx11::basic_string<char>::_Alloc_hider", i64, %union.anon }
%"struct.std::__cxx11::basic_string<char>::_Alloc_hider" = type { ptr }
%union.anon = type { i64, [8 x i8] }
%"struct.std::_Vector_base" = type { %"struct.std::_Vector_base<tinyobj::material_t, std::allocator<tinyobj::material_t>>::_Vector_impl" }
%"struct.std::_Vector_base<tinyobj::material_t, std::allocator<tinyobj::material_t>>::_Vector_impl" = type { %"struct.std::_Vector_base<tinyobj::material_t, std::allocator<tinyobj::material_t>>::_Vector_impl_data" }
%"struct.std::_Vector_base<tinyobj::material_t, std::allocator<tinyobj::material_t>>::_Vector_impl_data" = type { ptr, ptr, ptr }
%"struct.tinyobj::attrib_t" = type { %"class.std::vector.26", %"class.std::vector.26", %"class.std::vector.26", %"class.std::vector.26", %"class.std::vector.26", %"class.std::vector.26", %"class.std::vector.31" }
%"class.std::vector.26" = type { %"struct.std::_Vector_base.27" }
%"struct.std::_Vector_base.27" = type { %"struct.std::_Vector_base<float, std::allocator<float>>::_Vector_impl" }
%"struct.std::_Vector_base<float, std::allocator<float>>::_Vector_impl" = type { %"struct.std::_Vector_base<float, std::allocator<float>>::_Vector_impl_data" }
%"struct.std::_Vector_base<float, std::allocator<float>>::_Vector_impl_data" = type { ptr, ptr, ptr }
%"class.std::vector.31" = type { %"struct.std::_Vector_base.32" }
%"struct.std::_Vector_base.32" = type { %"struct.std::_Vector_base<tinyobj::skin_weight_t, std::allocator<tinyobj::skin_weight_t>>::_Vector_impl" }
%"struct.std::_Vector_base<tinyobj::skin_weight_t, std::allocator<tinyobj::skin_weight_t>>::_Vector_impl" = type { %"struct.std::_Vector_base<tinyobj::skin_weight_t, std::allocator<tinyobj::skin_weight_t>>::_Vector_impl_data" }
%"struct.std::_Vector_base<tinyobj::skin_weight_t, std::allocator<tinyobj::skin_weight_t>>::_Vector_impl_data" = type { ptr, ptr, ptr }
%"struct.std::_Vector_base.37" = type { %"struct.std::_Vector_base<tinyobj::shape_t, std::allocator<tinyobj::shape_t>>::_Vector_impl" }
%"struct.std::_Vector_base<tinyobj::shape_t, std::allocator<tinyobj::shape_t>>::_Vector_impl" = type { %"struct.std::_Vector_base<tinyobj::shape_t, std::allocator<tinyobj::shape_t>>::_Vector_impl_data" }
%"struct.std::_Vector_base<tinyobj::shape_t, std::allocator<tinyobj::shape_t>>::_Vector_impl_data" = type { ptr, ptr, ptr }
%"class.std::vector" = type { %"struct.std::_Vector_base" }
%"struct.tinyobj::ObjReaderConfig" = type { i8, %"class.std::__cxx11::basic_string", i8, %"class.std::__cxx11::basic_string" }
%"class.tinyobj::ObjReader" = type { i8, %"struct.tinyobj::attrib_t", %"class.std::vector.36", %"class.std::vector", %"class.std::__cxx11::basic_string", %"class.std::__cxx11::basic_string" }
%"class.std::vector.36" = type { %"struct.std::_Vector_base.37" }

@.str.69 = private unnamed_addr constant [3 x i8] c"/\\\00", align 1

; Function Attrs: mustprogress uwtable
define noundef zeroext i1 @_ZN7tinyobj9ObjReader13ParseFromFileERKNSt7__cxx1112basic_stringIcSt11char_traitsIcESaIcEEERKNS_15ObjReaderConfigE(ptr noundef nonnull align 8 dereferenceable(288) %this, ptr noundef nonnull align 8 dereferenceable(32) %filename, ptr noundef nonnull align 8 dereferenceable(80) %config) #2 align 2 personality ptr @__gxx_personality_v0 {
entry:
  %this.addr = alloca ptr, align 8
  %filename.addr = alloca ptr, align 8
  %config.addr = alloca ptr, align 8
  %mtl_search_path = alloca %"class.std::__cxx11::basic_string", align 8
  %pos = alloca i64, align 8
  %ref.tmp = alloca %"class.std::__cxx11::basic_string", align 8
  %exn.slot = alloca ptr, align 8
  %ehselector.slot = alloca i32, align 4
  store ptr %this, ptr %this.addr, align 8
  store ptr %filename, ptr %filename.addr, align 8
  store ptr %config, ptr %config.addr, align 8
  %this1 = load ptr, ptr %this.addr, align 8
  call void @_ZNSt7__cxx1112basic_stringIcSt11char_traitsIcESaIcEEC1Ev(ptr noundef nonnull align 8 dereferenceable(32) %mtl_search_path) #14
  %0 = load ptr, ptr %config.addr, align 8
  %mtl_search_path2 = getelementptr inbounds %"struct.tinyobj::ObjReaderConfig", ptr %0, i32 0, i32 3
  %call = call noundef zeroext i1 @_ZNKSt7__cxx1112basic_stringIcSt11char_traitsIcESaIcEE5emptyEv(ptr noundef nonnull align 8 dereferenceable(32) %mtl_search_path2) #14
  br i1 %call, label %if.then, label %if.else

if.then:                                          ; preds = %entry
  %1 = load ptr, ptr %filename.addr, align 8
  %call3 = call noundef i64 @_ZNKSt7__cxx1112basic_stringIcSt11char_traitsIcESaIcEE12find_last_ofEPKcm(ptr noundef nonnull align 8 dereferenceable(32) %1, ptr noundef @.str.69, i64 noundef -1) #14
  store i64 %call3, ptr %pos, align 8
  %2 = load i64, ptr %pos, align 8
  %cmp = icmp ne i64 %2, -1
  br i1 %cmp, label %if.then4, label %if.end

if.then4:                                         ; preds = %if.then
  %3 = load ptr, ptr %filename.addr, align 8
  %4 = load i64, ptr %pos, align 8
  invoke void @_ZNKSt7__cxx1112basic_stringIcSt11char_traitsIcESaIcEE6substrEmm(ptr sret(%"class.std::__cxx11::basic_string") align 8 %ref.tmp, ptr noundef nonnull align 8 dereferenceable(32) %3, i64 noundef 0, i64 noundef %4)
          to label %invoke.cont unwind label %lpad

invoke.cont:                                      ; preds = %if.then4
  %call5 = call noundef nonnull align 8 dereferenceable(32) ptr @_ZNSt7__cxx1112basic_stringIcSt11char_traitsIcESaIcEEaSEOS4_(ptr noundef nonnull align 8 dereferenceable(32) %mtl_search_path, ptr noundef nonnull align 8 dereferenceable(32) %ref.tmp) #14
  call void @_ZNSt7__cxx1112basic_stringIcSt11char_traitsIcESaIcEED1Ev(ptr noundef nonnull align 8 dereferenceable(32) %ref.tmp) #14
  br label %if.end

lpad:                                             ; preds = %if.end9, %if.else, %if.then4
  %5 = landingpad { ptr, i32 }
          cleanup
  %6 = extractvalue { ptr, i32 } %5, 0
  store ptr %6, ptr %exn.slot, align 8
  %7 = extractvalue { ptr, i32 } %5, 1
  store i32 %7, ptr %ehselector.slot, align 4
  call void @_ZNSt7__cxx1112basic_stringIcSt11char_traitsIcESaIcEED1Ev(ptr noundef nonnull align 8 dereferenceable(32) %mtl_search_path) #14
  br label %eh.resume

if.end:                                           ; preds = %invoke.cont, %if.then
  br label %if.end9

if.else:                                          ; preds = %entry
  %8 = load ptr, ptr %config.addr, align 8
  %mtl_search_path6 = getelementptr inbounds %"struct.tinyobj::ObjReaderConfig", ptr %8, i32 0, i32 3
  %call8 = invoke noundef nonnull align 8 dereferenceable(32) ptr @_ZNSt7__cxx1112basic_stringIcSt11char_traitsIcESaIcEEaSERKS4_(ptr noundef nonnull align 8 dereferenceable(32) %mtl_search_path, ptr noundef nonnull align 8 dereferenceable(32) %mtl_search_path6)
          to label %invoke.cont7 unwind label %lpad

invoke.cont7:                                     ; preds = %if.else
  br label %if.end9

if.end9:                                          ; preds = %invoke.cont7, %if.end
  %attrib_ = getelementptr inbounds %"class.tinyobj::ObjReader", ptr %this1, i32 0, i32 1
  %shapes_ = getelementptr inbounds %"class.tinyobj::ObjReader", ptr %this1, i32 0, i32 2
  %materials_ = getelementptr inbounds %"class.tinyobj::ObjReader", ptr %this1, i32 0, i32 3
  %warning_ = getelementptr inbounds %"class.tinyobj::ObjReader", ptr %this1, i32 0, i32 4
  %error_ = getelementptr inbounds %"class.tinyobj::ObjReader", ptr %this1, i32 0, i32 5
  %9 = load ptr, ptr %filename.addr, align 8
  %call10 = call noundef ptr @_ZNKSt7__cxx1112basic_stringIcSt11char_traitsIcESaIcEE5c_strEv(ptr noundef nonnull align 8 dereferenceable(32) %9) #14
  %call11 = call noundef ptr @_ZNKSt7__cxx1112basic_stringIcSt11char_traitsIcESaIcEE5c_strEv(ptr noundef nonnull align 8 dereferenceable(32) %mtl_search_path) #14
  %10 = load ptr, ptr %config.addr, align 8
  %triangulate = getelementptr inbounds %"struct.tinyobj::ObjReaderConfig", ptr %10, i32 0, i32 0
  %11 = load i8, ptr %triangulate, align 8
  %tobool = trunc i8 %11 to i1
  %12 = load ptr, ptr %config.addr, align 8
  %vertex_color = getelementptr inbounds %"struct.tinyobj::ObjReaderConfig", ptr %12, i32 0, i32 2
  %13 = load i8, ptr %vertex_color, align 8
  %tobool12 = trunc i8 %13 to i1
  %call14 = invoke noundef zeroext i1 @_ZN7tinyobj7LoadObjEPNS_8attrib_tEPSt6vectorINS_7shape_tESaIS3_EEPS2_INS_10material_tESaIS7_EEPNSt7__cxx1112basic_stringIcSt11char_traitsIcESaIcEEESH_PKcSJ_bb(ptr noundef %attrib_, ptr noundef %shapes_, ptr noundef %materials_, ptr noundef %warning_, ptr noundef %error_, ptr noundef %call10, ptr noundef %call11, i1 noundef zeroext %tobool, i1 noundef zeroext %tobool12)
          to label %invoke.cont13 unwind label %lpad

invoke.cont13:                                    ; preds = %if.end9
  %valid_ = getelementptr inbounds %"class.tinyobj::ObjReader", ptr %this1, i32 0, i32 0
  %frombool = zext i1 %call14 to i8
  store i8 %frombool, ptr %valid_, align 8
  %valid_15 = getelementptr inbounds %"class.tinyobj::ObjReader", ptr %this1, i32 0, i32 0
  %14 = load i8, ptr %valid_15, align 8
  %tobool16 = trunc i8 %14 to i1
  call void @_ZNSt7__cxx1112basic_stringIcSt11char_traitsIcESaIcEED1Ev(ptr noundef nonnull align 8 dereferenceable(32) %mtl_search_path) #14
  ret i1 %tobool16

eh.resume:                                        ; preds = %lpad
  %exn = load ptr, ptr %exn.slot, align 8
  %sel = load i32, ptr %ehselector.slot, align 4
  %lpad.val = insertvalue { ptr, i32 } poison, ptr %exn, 0
  %lpad.val17 = insertvalue { ptr, i32 } %lpad.val, i32 %sel, 1
  resume { ptr, i32 } %lpad.val17
}