; Function Attrs: mustprogress uwtable
define noundef zeroext i1 @_ZN7tinyobj9ObjReader13ParseFromFileERKNSt7__cxx1112basic_stringIcSt11char_traitsIcESaIcEEERKNS_15ObjReaderConfigE(ptr noundef nonnull align 8 dereferenceable(288) %this, ptr noundef nonnull align 8 dereferenceable(32) %filename, ptr noundef nonnull align 8 dereferenceable(80) %config) local_unnamed_addr #3 align 2 personality ptr @__gxx_personality_v0 {
entry:
  %mtl_search_path = alloca %"class.std::__cxx11::basic_string", align 8
  %ref.tmp = alloca %"class.std::__cxx11::basic_string", align 8
  call void @_ZNSt7__cxx1112basic_stringIcSt11char_traitsIcESaIcEEC1Ev(ptr noundef nonnull align 8 dereferenceable(32) %mtl_search_path) #24
  %mtl_search_path2 = getelementptr inbounds i8, ptr %config, i64 48
  %call = call noundef zeroext i1 @_ZNKSt7__cxx1112basic_stringIcSt11char_traitsIcESaIcEE5emptyEv(ptr noundef nonnull align 8 dereferenceable(32) %mtl_search_path2) #24
  br i1 %call, label %if.then, label %if.else

if.then:                                          ; preds = %entry
  %call3 = call noundef i64 @_ZNKSt7__cxx1112basic_stringIcSt11char_traitsIcESaIcEE12find_last_ofEPKcm(ptr noundef nonnull align 8 dereferenceable(32) %filename, ptr noundef nonnull @.str.69, i64 noundef -1) #24
  %cmp.not = icmp eq i64 %call3, -1
  br i1 %cmp.not, label %if.end9, label %if.then4

if.then4:                                         ; preds = %if.then
  invoke void @_ZNKSt7__cxx1112basic_stringIcSt11char_traitsIcESaIcEE6substrEmm(ptr nonnull sret(%"class.std::__cxx11::basic_string") align 8 %ref.tmp, ptr noundef nonnull align 8 dereferenceable(32) %filename, i64 noundef 0, i64 noundef %call3)
          to label %invoke.cont unwind label %lpad

invoke.cont:                                      ; preds = %if.then4
  %call5 = call noundef nonnull align 8 dereferenceable(32) ptr @_ZNSt7__cxx1112basic_stringIcSt11char_traitsIcESaIcEEaSEOS4_(ptr noundef nonnull align 8 dereferenceable(32) %mtl_search_path, ptr noundef nonnull align 8 dereferenceable(32) %ref.tmp) #24
  call void @_ZNSt7__cxx1112basic_stringIcSt11char_traitsIcESaIcEED1Ev(ptr noundef nonnull align 8 dereferenceable(32) %ref.tmp) #24
  br label %if.end9

lpad:                                             ; preds = %if.end9, %if.else, %if.then4
  %0 = landingpad { ptr, i32 }
          cleanup
  call void @_ZNSt7__cxx1112basic_stringIcSt11char_traitsIcESaIcEED1Ev(ptr noundef nonnull align 8 dereferenceable(32) %mtl_search_path) #24
  resume { ptr, i32 } %0

if.else:                                          ; preds = %entry
  %call8 = invoke noundef nonnull align 8 dereferenceable(32) ptr @_ZNSt7__cxx1112basic_stringIcSt11char_traitsIcESaIcEEaSERKS4_(ptr noundef nonnull align 8 dereferenceable(32) %mtl_search_path, ptr noundef nonnull align 8 dereferenceable(32) %mtl_search_path2)
          to label %if.end9 unwind label %lpad

if.end9:                                          ; preds = %if.else, %if.then, %invoke.cont
  %attrib_ = getelementptr inbounds i8, ptr %this, i64 8
  %shapes_ = getelementptr inbounds i8, ptr %this, i64 176
  %materials_ = getelementptr inbounds i8, ptr %this, i64 200
  %warning_ = getelementptr inbounds i8, ptr %this, i64 224
  %error_ = getelementptr inbounds i8, ptr %this, i64 256
  %call10 = call noundef ptr @_ZNKSt7__cxx1112basic_stringIcSt11char_traitsIcESaIcEE5c_strEv(ptr noundef nonnull align 8 dereferenceable(32) %filename) #24
  %call11 = call noundef ptr @_ZNKSt7__cxx1112basic_stringIcSt11char_traitsIcESaIcEE5c_strEv(ptr noundef nonnull align 8 dereferenceable(32) %mtl_search_path) #24
  %1 = load i8, ptr %config, align 8
  %2 = and i8 %1, 1
  %tobool = icmp ne i8 %2, 0
  %vertex_color = getelementptr inbounds i8, ptr %config, i64 40
  %3 = load i8, ptr %vertex_color, align 8
  %4 = and i8 %3, 1
  %tobool12 = icmp ne i8 %4, 0
  %call14 = invoke noundef zeroext i1 @_ZN7tinyobj7LoadObjEPNS_8attrib_tEPSt6vectorINS_7shape_tESaIS3_EEPS2_INS_10material_tESaIS7_EEPNSt7__cxx1112basic_stringIcSt11char_traitsIcESaIcEEESH_PKcSJ_bb(ptr noundef nonnull %attrib_, ptr noundef nonnull %shapes_, ptr noundef nonnull %materials_, ptr noundef nonnull %warning_, ptr noundef nonnull %error_, ptr noundef %call10, ptr noundef %call11, i1 noundef zeroext %tobool, i1 noundef zeroext %tobool12)
          to label %invoke.cont13 unwind label %lpad

invoke.cont13:                                    ; preds = %if.end9
  %frombool = zext i1 %call14 to i8
  store i8 %frombool, ptr %this, align 8
  call void @_ZNSt7__cxx1112basic_stringIcSt11char_traitsIcESaIcEED1Ev(ptr noundef nonnull align 8 dereferenceable(32) %mtl_search_path) #24
  ret i1 %call14
}